target datalayout = "e-m:e-p270:32:32-p271:32:32-p272:64:64-i64:64-i128:128-f80:128-n8:16:32:64-S128"
target triple = "x86_64-unknown-linux-gnu"

%"class.google::protobuf::internal::InternalMetadata" = type { i64 }
%"class.google::protobuf::internal::CachedSize" = type { i32 }
%"class.google::protobuf::DoubleValue" = type { %"class.google::protobuf::Message", %union.anon.11 }
%"class.google::protobuf::Message" = type { %"class.google::protobuf::MessageLite" }
%"class.google::protobuf::MessageLite" = type { ptr, %"class.google::protobuf::internal::InternalMetadata" }
%union.anon.11 = type { %"struct.google::protobuf::DoubleValue::Impl_" }
%"struct.google::protobuf::DoubleValue::Impl_" = type <{ double, %"class.google::protobuf::internal::CachedSize", [4 x i8] }>

; Function Attrs: mustprogress nounwind uwtable
define linkonce_odr hidden noundef double @_ZNK6google8protobuf11DoubleValue15_internal_valueEv(ptr noundef nonnull align 8 dereferenceable(32) %this) #5 comdat align 2 {
entry:
  %this.addr = alloca ptr, align 8
  store ptr %this, ptr %this.addr, align 8
  %this1 = load ptr, ptr %this.addr, align 8
  %0 = getelementptr inbounds %"class.google::protobuf::DoubleValue", ptr %this1, i32 0, i32 1
  %value_ = getelementptr inbounds %"struct.google::protobuf::DoubleValue::Impl_", ptr %0, i32 0, i32 0
  %1 = load double, ptr %value_, align 8
  ret double %1
}

; Function Attrs: mustprogress uwtable
define noundef i64 @_ZNK6google8protobuf11DoubleValue12ByteSizeLongEv(ptr noundef nonnull align 8 dereferenceable(32) %this) unnamed_addr #4 align 2 {
entry:
  %this.addr = alloca ptr, align 8
  %total_size = alloca i64, align 8
  %cached_has_bits = alloca i32, align 4
  %tmp_value = alloca double, align 8
  %raw_value = alloca i64, align 8
  store ptr %this, ptr %this.addr, align 8
  %this1 = load ptr, ptr %this.addr, align 8
  store i64 0, ptr %total_size, align 8
  store i32 0, ptr %cached_has_bits, align 4
  %call = call noundef double @_ZNK6google8protobuf11DoubleValue15_internal_valueEv(ptr noundef nonnull align 8 dereferenceable(32) %this1)
  store double %call, ptr %tmp_value, align 8
  call void @llvm.memcpy.p0.p0.i64(ptr align 8 %raw_value, ptr align 8 %tmp_value, i64 8, i1 false)
  %0 = load i64, ptr %raw_value, align 8
  %cmp = icmp ne i64 %0, 0
  br i1 %cmp, label %if.then, label %if.end

if.then:                                          ; preds = %entry
  %1 = load i64, ptr %total_size, align 8
  %add = add i64 %1, 9
  store i64 %add, ptr %total_size, align 8
  br label %if.end

if.end:                                           ; preds = %if.then, %entry
  %2 = load i64, ptr %total_size, align 8
  %3 = getelementptr inbounds %"class.google::protobuf::DoubleValue", ptr %this1, i32 0, i32 1
  %_cached_size_ = getelementptr inbounds %"struct.google::protobuf::DoubleValue::Impl_", ptr %3, i32 0, i32 1
  %call2 = call noundef i64 @_ZNK6google8protobuf7Message29MaybeComputeUnknownFieldsSizeEmPNS0_8internal10CachedSizeE(ptr noundef nonnull align 8 dereferenceable(16) %this1, i64 noundef %2, ptr noundef %_cached_size_)
  ret i64 %call2
}