; Function Attrs: mustprogress uwtable
define noundef i64 @_ZNK6google8protobuf11DoubleValue12ByteSizeLongEv(ptr noundef nonnull align 8 dereferenceable(32) %this) unnamed_addr #3 align 2 {
entry:
  %0 = getelementptr inbounds i8, ptr %this, i64 16
  %1 = load double, ptr %0, align 8
  %cmp.not = tail call i1 @llvm.is.fpclass.f64(double %1, i32 64)
  %spec.select = select i1 %cmp.not, i64 0, i64 9
  %_cached_size_ = getelementptr inbounds i8, ptr %this, i64 24
  %call2 = tail call noundef i64 @_ZNK6google8protobuf7Message29MaybeComputeUnknownFieldsSizeEmPNS0_8internal10CachedSizeE(ptr noundef nonnull align 8 dereferenceable(16) %this, i64 noundef %spec.select, ptr noundef nonnull %_cached_size_)
  ret i64 %call2
}